target datalayout = "e-m:e-p270:32:32-p271:32:32-p272:64:64-i64:64-i128:128-f80:128-n8:16:32:64-S128"
target triple = "x86_64-pc-linux-gnu"

%"class.gmx::internal::SelectionData" = type <{ %"class.std::__cxx11::basic_string", %"class.std::__cxx11::basic_string", %struct.gmx_ana_pos_t, %"class.std::vector", %"class.std::vector", %"class.gmx::FlagsTemplate", ptr, i32, float, float, i8, i8, [2 x i8] }>
%"class.std::__cxx11::basic_string" = type { %"struct.std::__cxx11::basic_string<char>::_Alloc_hider", i64, %union.anon }
%"struct.std::__cxx11::basic_string<char>::_Alloc_hider" = type { ptr }
%union.anon = type { i64, [8 x i8] }
%struct.gmx_ana_pos_t = type <{ ptr, ptr, ptr, %struct.gmx_ana_indexmap_t, i32, [4 x i8] }>
%struct.gmx_ana_indexmap_t = type { i32, ptr, ptr, %struct.t_blocka, ptr, %struct.t_blocka, i8 }
%struct.t_blocka = type { i32, ptr, i32, ptr, i32, i32 }
%"class.std::vector" = type { %"struct.std::_Vector_base" }
%"struct.std::_Vector_base" = type { %"struct.std::_Vector_base<float, std::allocator<float>>::_Vector_impl" }
%"struct.std::_Vector_base<float, std::allocator<float>>::_Vector_impl" = type { %"struct.std::_Vector_base<float, std::allocator<float>>::_Vector_impl_data" }
%"struct.std::_Vector_base<float, std::allocator<float>>::_Vector_impl_data" = type { ptr, ptr, ptr }
%"class.gmx::FlagsTemplate" = type { i64 }

; Function Attrs: mustprogress nounwind uwtable
define linkonce_odr noundef zeroext i1 @_ZNK3gmx8internal13SelectionData24isCoveredFractionDynamicEv(ptr noundef nonnull align 8 dereferenceable(294) %0) #1 comdat align 2 {
  %2 = alloca ptr, align 8
  store ptr %0, ptr %2, align 8
  %3 = load ptr, ptr %2, align 8
  %4 = getelementptr inbounds %"class.gmx::internal::SelectionData", ptr %3, i32 0, i32 11
  %5 = load i8, ptr %4, align 1
  %6 = trunc i8 %5 to i1
  ret i1 %6
}

; Function Attrs: mustprogress nounwind uwtable
define void @_ZN3gmx8internal13SelectionData29computeAverageCoveredFractionEi(ptr noundef nonnull align 8 dereferenceable(294) %0, i32 noundef %1) #1 align 2 {
  %3 = alloca ptr, align 8
  %4 = alloca i32, align 4
  store ptr %0, ptr %3, align 8
  store i32 %1, ptr %4, align 4
  %5 = load ptr, ptr %3, align 8
  %6 = call noundef zeroext i1 @_ZNK3gmx8internal13SelectionData24isCoveredFractionDynamicEv(ptr noundef nonnull align 8 dereferenceable(294) %5)
  br i1 %6, label %7, label %16

7:                                                ; preds = %2
  %8 = load i32, ptr %4, align 4
  %9 = icmp sgt i32 %8, 0
  br i1 %9, label %10, label %16

10:                                               ; preds = %7
  %11 = load i32, ptr %4, align 4
  %12 = sitofp i32 %11 to float
  %13 = getelementptr inbounds %"class.gmx::internal::SelectionData", ptr %5, i32 0, i32 9
  %14 = load float, ptr %13, align 8
  %15 = fdiv float %14, %12
  store float %15, ptr %13, align 8
  br label %16

16:                                               ; preds = %10, %7, %2
  ret void
}