; Function Attrs: mustprogress nofree norecurse nosync nounwind willreturn memory(argmem: readwrite) uwtable
define void @_ZN3gmx8internal13SelectionData29computeAverageCoveredFractionEi(ptr nocapture noundef nonnull align 8 dereferenceable(294) %0, i32 noundef %1) local_unnamed_addr #10 align 2 {
  %3 = getelementptr inbounds i8, ptr %0, i64 293
  %4 = load i8, ptr %3, align 1
  %5 = trunc i8 %4 to i1
  %6 = icmp sgt i32 %1, 0
  %or.cond = and i1 %6, %5
  br i1 %or.cond, label %7, label %12

7:                                                ; preds = %2
  %8 = sitofp i32 %1 to float
  %9 = getelementptr inbounds i8, ptr %0, i64 288
  %10 = load float, ptr %9, align 8
  %11 = fdiv float %10, %8
  store float %11, ptr %9, align 8
  br label %12

12:                                               ; preds = %7, %2
  ret void
}